; Function Attrs: mustprogress uwtable
define void @_ZN9grpc_core17LbCostBinMetadata12DisplayValueB5cxx11ENS0_9ValueTypeE(ptr noalias sret(%"class.std::__cxx11::basic_string") align 8 %agg.result, ptr noundef %x) local_unnamed_addr #3 align 2 personality ptr @__gxx_personality_v0 {
entry:
  %ref.tmp = alloca %"class.absl::lts_20230802::AlphaNum", align 8
  %ref.tmp1 = alloca %"class.absl::lts_20230802::AlphaNum", align 8
  %ref.tmp2 = alloca %"class.absl::lts_20230802::AlphaNum", align 8
  %name = getelementptr inbounds i8, ptr %x, i64 8
  %call.i = tail call { i64, ptr } @_ZNKSt7__cxx1112basic_stringIcSt11char_traitsIcESaIcEEcvSt17basic_string_viewIcS2_EEv(ptr noundef nonnull align 8 dereferenceable(32) %name) #18
  %0 = extractvalue { i64, ptr } %call.i, 0
  store i64 %0, ptr %ref.tmp, align 8
  %1 = getelementptr inbounds i8, ptr %ref.tmp, i64 8
  %2 = extractvalue { i64, ptr } %call.i, 1
  store ptr %2, ptr %1, align 8
  store i64 1, ptr %ref.tmp1, align 8
  %3 = getelementptr inbounds i8, ptr %ref.tmp1, i64 8
  store ptr @.str.20, ptr %3, align 8
  %4 = load double, ptr %x, align 8
  %digits_.i = getelementptr inbounds i8, ptr %ref.tmp2, i64 16
  %call.i1 = call noundef i64 @_ZN4absl12lts_2023080216numbers_internal17SixDigitsToBufferEdPc(double noundef %4, ptr noundef nonnull %digits_.i)
  store i64 %call.i1, ptr %ref.tmp2, align 8
  %_M_str.i.i = getelementptr inbounds i8, ptr %ref.tmp2, i64 8
  store ptr %digits_.i, ptr %_M_str.i.i, align 8
  call void @_ZN4absl12lts_202308026StrCatB5cxx11ERKNS0_8AlphaNumES3_S3_(ptr sret(%"class.std::__cxx11::basic_string") align 8 %agg.result, ptr noundef nonnull align 8 dereferenceable(48) %ref.tmp, ptr noundef nonnull align 8 dereferenceable(48) %ref.tmp1, ptr noundef nonnull align 8 dereferenceable(48) %ref.tmp2)
  ret void
}